(dp0
I0
(lp1
I85
aI72
aI137
aI229
aI72
aI131
aI236
aI112
aI199
aI69
aI252
aI0
aI0
aI0
aI0
aI232
aI236
aI253
aI255
aI255
aI137
aI69
aI248
aI139
aI69
aI248
aI137
aI193
aI72
aI137
aI202
aI72
aI131
aI234
aI5
aI72
aI137
aI77
aI232
aI72
aI137
aI85
aI224
aI15
aI135
aI164
aI0
aI0
aI0
asI1
(lp2
I72
aI139
aI69
aI232
aI72
aI139
aI12
aI197
aI120
aI8
aI64
aI0
aI255
aI225
asI2
(lp3
I72
aI191
aI230
aI8
aI64
aI0
aI0
aI0
aI0
aI0
aI176
aI0
aI232
aI144
aI253
aI255
aI255
aI137
aI69
aI220
aI233
aI145
aI0
aI0
aI0
asI3
(lp4
I72
aI191
aI235
aI8
aI64
aI0
aI0
aI0
aI0
aI0
aI176
aI0
aI232
aI119
aI253
aI255
aI255
aI137
aI69
aI216
aI233
aI120
aI0
aI0
aI0
asI4
(lp5
I72
aI191
aI240
aI8
aI64
aI0
aI0
aI0
aI0
aI0
aI176
aI0
aI232
aI94
aI253
aI255
aI255
aI137
aI69
aI212
aI233
aI95
aI0
aI0
aI0
asI5
(lp6
I72
aI191
aI245
aI8
aI64
aI0
aI0
aI0
aI0
aI0
aI176
aI0
aI232
aI69
aI253
aI255
aI255
aI137
aI69
aI208
aI233
aI70
aI0
aI0
aI0
asI6
(lp7
I72
aI191
aI252
aI8
aI64
aI0
aI0
aI0
aI0
aI0
aI176
aI0
aI232
aI44
aI253
aI255
aI255
aI137
aI69
aI204
aI233
aI45
aI0
aI0
aI0
asI7
(lp8
I72
aI191
aI2
aI9
aI64
aI0
aI0
aI0
aI0
aI0
aI176
aI0
aI232
aI19
aI253
aI255
aI255
aI137
aI69
aI200
aI233
aI20
aI0
aI0
aI0
asI8
(lp9
I72
aI191
aI8
aI9
aI64
aI0
aI0
aI0
aI0
aI0
aI176
aI0
aI232
aI250
aI252
aI255
aI255
aI137
aI69
aI196
asI9
(lp10
I232
aI50
aI254
aI255
aI255
aI232
aI13
aI253
aI255
aI255
aI136
aI193
aI136
aI77
aI247
aI15
aI190
aI69
aI247
aI131
aI192
aI159
aI137
aI194
aI131
aI232
aI3
aI72
aI137
aI85
aI184
aI137
aI69
aI180
aI15
aI135
aI109
aI0
aI0
aI0
asI10
(lp11
I72
aI139
aI69
aI184
aI72
aI139
aI12
aI197
aI168
aI8
aI64
aI0
aI255
aI225
asI11
(lp12
I72
aI191
aI230
aI8
aI64
aI0
aI0
aI0
aI0
aI0
aI176
aI0
aI232
aI176
aI252
aI255
aI255
aI137
aI69
aI176
aI233
aI90
aI0
aI0
aI0
asI12
(lp13
I72
aI191
aI235
aI8
aI64
aI0
aI0
aI0
aI0
aI0
aI176
aI0
aI232
aI151
aI252
aI255
aI255
aI137
aI69
aI172
aI233
aI65
aI0
aI0
aI0
asI13
(lp14
I72
aI191
aI240
aI8
aI64
aI0
aI0
aI0
aI0
aI0
aI176
aI0
aI232
aI126
aI252
aI255
aI255
aI137
aI69
aI168
asI14
(lp15
I72
aI191
aI245
aI8
aI64
aI0
aI0
aI0
aI0
aI0
aI176
aI0
aI232
aI106
aI252
aI255
aI255
aI137
aI69
aI164
aI233
aI20
aI0
aI0
aI0
asI15
(lp16
I72
aI191
aI8
aI9
aI64
aI0
aI0
aI0
aI0
aI0
aI176
aI0
aI232
aI81
aI252
aI255
aI255
aI137
aI69
aI160
asI16
(lp17
I72
aI191
aI16
aI9
aI64
aI0
aI0
aI0
aI0
aI0
aI176
aI0
aI232
aI61
aI252
aI255
aI255
aI49
aI201
aI137
aI69
aI156
aI137
aI200
aI72
aI131
aI196
aI112
aI93
aI195
as.