(dp0
I0
(lp1
I85
aI72
aI137
aI229
aI72
aI131
aI236
aI32
aI137
aI125
aI252
aI191
aI213
aI8
aI64
aI0
aI49
aI192
aI136
aI193
aI136
aI200
aI232
aI117
aI254
aI255
aI255
aI139
aI85
aI252
aI133
aI210
aI137
aI69
aI248
aI137
aI85
aI244
aI15
aI132
aI45
aI0
aI0
aI0
asI1
(lp2
I233
aI0
aI0
aI0
aI0
asI2
(lp3
I139
aI69
aI244
aI131
aI232
aI1
aI137
aI69
aI240
aI15
aI132
aI50
aI0
aI0
aI0
asI3
(lp4
I233
aI0
aI0
aI0
aI0
asI4
(lp5
I139
aI69
aI244
aI131
aI232
aI2
aI137
aI69
aI236
aI15
aI132
aI55
aI0
aI0
aI0
asI5
(lp6
I233
aI70
aI0
aI0
aI0
asI6
(lp7
I72
aI191
aI230
aI8
aI64
aI0
aI0
aI0
aI0
aI0
aI176
aI0
aI232
aI38
aI254
aI255
aI255
aI137
aI69
aI232
aI233
aI45
aI0
aI0
aI0
asI7
(lp8
I72
aI191
aI235
aI8
aI64
aI0
aI0
aI0
aI0
aI0
aI176
aI0
aI232
aI13
aI254
aI255
aI255
aI137
aI69
aI228
aI233
aI20
aI0
aI0
aI0
asI8
(lp9
I72
aI191
aI240
aI8
aI64
aI0
aI0
aI0
aI0
aI0
aI176
aI0
aI232
aI244
aI253
aI255
aI255
aI137
aI69
aI224
asI9
(lp10
I72
aI131
aI196
aI32
aI93
aI195
as.