(dp0
I0
(lp1
I85
aI72
aI137
aI229
aI72
aI131
aI236
aI112
aI199
aI69
aI252
aI0
aI0
aI0
aI0
aI232
aI204
aI254
aI255
aI255
aI137
aI69
aI248
aI232
aI196
aI254
aI255
aI255
aI137
aI69
aI244
aI139
aI69
aI248
aI137
aI193
aI72
aI137
aI202
aI72
aI131
aI234
aI5
aI72
aI137
aI77
aI232
aI72
aI137
aI85
aI224
aI15
aI135
aI73
aI1
aI0
aI0
asI1
(lp2
I72
aI139
aI69
aI232
aI72
aI139
aI12
aI197
aI136
aI7
aI64
aI0
aI255
aI225
asI2
(lp3
I72
aI191
aI0
aI8
aI64
aI0
aI0
aI0
aI0
aI0
aI176
aI0
aI232
aI104
aI254
aI255
aI255
aI137
aI69
aI220
aI233
aI54
aI1
aI0
aI0
asI3
(lp4
I139
aI69
aI244
aI137
aI193
aI72
aI137
aI202
aI72
aI131
aI234
aI8
aI72
aI137
aI77
aI208
aI72
aI137
aI85
aI200
aI15
aI135
aI159
aI0
aI0
aI0
asI4
(lp5
I72
aI139
aI69
aI208
aI72
aI139
aI12
aI197
aI184
aI7
aI64
aI0
aI255
aI225
asI5
(lp6
I72
aI191
aI3
aI8
aI64
aI0
aI0
aI0
aI0
aI0
aI176
aI0
aI232
aI39
aI254
aI255
aI255
aI137
aI69
aI196
aI233
aI120
aI0
aI0
aI0
asI6
(lp7
I72
aI191
aI8
aI8
aI64
aI0
aI0
aI0
aI0
aI0
aI176
aI0
aI232
aI14
aI254
aI255
aI255
aI137
aI69
aI192
aI233
aI95
aI0
aI0
aI0
asI7
(lp8
I72
aI191
aI13
aI8
aI64
aI0
aI0
aI0
aI0
aI0
aI176
aI0
aI232
aI245
aI253
aI255
aI255
aI137
aI69
aI188
aI233
aI70
aI0
aI0
aI0
asI8
(lp9
I72
aI191
aI18
aI8
aI64
aI0
aI0
aI0
aI0
aI0
aI176
aI0
aI232
aI220
aI253
aI255
aI255
aI137
aI69
aI184
aI233
aI45
aI0
aI0
aI0
asI9
(lp10
I72
aI191
aI20
aI8
aI64
aI0
aI0
aI0
aI0
aI0
aI176
aI0
aI232
aI195
aI253
aI255
aI255
aI137
aI69
aI180
aI233
aI20
aI0
aI0
aI0
asI10
(lp11
I72
aI191
aI22
aI8
aI64
aI0
aI0
aI0
aI0
aI0
aI176
aI0
aI232
aI170
aI253
aI255
aI255
aI137
aI69
aI176
asI11
(lp12
I233
aI120
aI0
aI0
aI0
asI12
(lp13
I72
aI191
aI24
aI8
aI64
aI0
aI0
aI0
aI0
aI0
aI176
aI0
aI232
aI145
aI253
aI255
aI255
aI137
aI69
aI172
aI233
aI95
aI0
aI0
aI0
asI13
(lp14
I72
aI191
aI27
aI8
aI64
aI0
aI0
aI0
aI0
aI0
aI176
aI0
aI232
aI120
aI253
aI255
aI255
aI137
aI69
aI168
aI233
aI70
aI0
aI0
aI0
asI14
(lp15
I72
aI191
aI30
aI8
aI64
aI0
aI0
aI0
aI0
aI0
aI176
aI0
aI232
aI95
aI253
aI255
aI255
aI137
aI69
aI164
aI233
aI45
aI0
aI0
aI0
asI15
(lp16
I72
aI191
aI33
aI8
aI64
aI0
aI0
aI0
aI0
aI0
aI176
aI0
aI232
aI70
aI253
aI255
aI255
aI137
aI69
aI160
aI233
aI20
aI0
aI0
aI0
asI16
(lp17
I72
aI191
aI36
aI8
aI64
aI0
aI0
aI0
aI0
aI0
aI176
aI0
aI232
aI45
aI253
aI255
aI255
aI137
aI69
aI156
asI17
(lp18
I49
aI192
aI72
aI131
aI196
aI112
aI93
aI195
as.